target datalayout = "e-m:e-p270:32:32-p271:32:32-p272:64:64-i64:64-i128:128-f80:128-n8:16:32:64-S128"
target triple = "x86_64-pc-linux-gnu"

%struct._object = type { %union.anon, ptr }
%union.anon = type { i64 }
%struct.anon = type { i32, i32 }
%struct.PyBytesObject = type { %struct.PyVarObject, i64, [1 x i8] }
%struct.PyVarObject = type { %struct._object, i64 }

@.str.13 = private unnamed_addr constant [20 x i8] c"append_history_file\00", align 1
@_Py_NoneStruct = external global %struct._object, align 8
@PyExc_OSError = external global ptr, align 8
@_history_length = internal global i32 -1, align 4
@PyExc_ValueError = external global ptr, align 8
@.str.37 = private unnamed_addr constant [27 x i8] c"nelements must be positive\00", align 1
@libedit_append_replace_history_offset = internal global i8 0, align 1

; Function Attrs: alwaysinline nounwind uwtable
define internal i32 @_Py_IsImmortal(ptr noundef %0) #4 {
  %2 = alloca ptr, align 8
  store ptr %0, ptr %2, align 8, !tbaa !19
  %3 = load ptr, ptr %2, align 8, !tbaa !19
  %4 = getelementptr inbounds nuw %struct._object, ptr %3, i32 0, i32 0
  %5 = getelementptr inbounds nuw %struct.anon, ptr %4, i32 0, i32 0
  %6 = load i32, ptr %5, align 8, !tbaa !23
  %7 = icmp slt i32 %6, 0
  %8 = zext i1 %7 to i32
  ret i32 %8
}

; Function Attrs: alwaysinline nounwind uwtable
define internal void @Py_DECREF(ptr noundef %0) #4 {
  %2 = alloca ptr, align 8
  store ptr %0, ptr %2, align 8, !tbaa !19
  %3 = load ptr, ptr %2, align 8, !tbaa !19
  %4 = call i32 @_Py_IsImmortal(ptr noundef %3)
  %5 = icmp ne i32 %4, 0
  br i1 %5, label %6, label %7

6:                                                ; preds = %1
  br label %16

7:                                                ; preds = %1
  %8 = load ptr, ptr %2, align 8, !tbaa !19
  %9 = getelementptr inbounds nuw %struct._object, ptr %8, i32 0, i32 0
  %10 = getelementptr inbounds nuw %struct.anon, ptr %9, i32 0, i32 0
  %11 = load i32, ptr %10, align 8, !tbaa !23
  %12 = add i32 %11, -1
  store i32 %12, ptr %10, align 8, !tbaa !23
  %13 = icmp eq i32 %12, 0
  br i1 %13, label %14, label %16

14:                                               ; preds = %7
  %15 = load ptr, ptr %2, align 8, !tbaa !19
  call void @_Py_Dealloc(ptr noundef %15)
  br label %16

16:                                               ; preds = %6, %14, %7
  ret void
}

; Function Attrs: inlinehint nounwind uwtable
define internal void @Py_XDECREF(ptr noundef %0) #5 {
  %2 = alloca ptr, align 8
  store ptr %0, ptr %2, align 8, !tbaa !19
  %3 = load ptr, ptr %2, align 8, !tbaa !19
  %4 = icmp ne ptr %3, null
  br i1 %4, label %5, label %7

5:                                                ; preds = %1
  %6 = load ptr, ptr %2, align 8, !tbaa !19
  call void @Py_DECREF(ptr noundef %6)
  br label %7

7:                                                ; preds = %5, %1
  ret void
}

; Function Attrs: inlinehint nounwind uwtable
define internal ptr @PyBytes_AS_STRING(ptr noundef %0) #5 {
  %2 = alloca ptr, align 8
  store ptr %0, ptr %2, align 8, !tbaa !19
  %3 = load ptr, ptr %2, align 8, !tbaa !19
  %4 = getelementptr inbounds nuw %struct.PyBytesObject, ptr %3, i32 0, i32 2
  %5 = getelementptr inbounds [1 x i8], ptr %4, i64 0, i64 0
  ret ptr %5
}

; Function Attrs: nounwind uwtable
define internal ptr @readline_append_history_file_impl(ptr noundef %0, i32 noundef %1, ptr noundef %2) #0 {
  %4 = alloca ptr, align 8
  %5 = alloca ptr, align 8
  %6 = alloca i32, align 4
  %7 = alloca ptr, align 8
  %8 = alloca ptr, align 8
  %9 = alloca ptr, align 8
  %10 = alloca i32, align 4
  %11 = alloca i32, align 4
  store ptr %0, ptr %5, align 8, !tbaa !19
  store i32 %1, ptr %6, align 4, !tbaa !8
  store ptr %2, ptr %7, align 8, !tbaa !19
  %12 = load i32, ptr %6, align 4, !tbaa !8
  %13 = icmp slt i32 %12, 0
  br i1 %13, label %14, label %16

14:                                               ; preds = %3
  %15 = load ptr, ptr @PyExc_ValueError, align 8, !tbaa !19
  call void @PyErr_SetString(ptr noundef %15, ptr noundef @.str.37)
  store ptr null, ptr %4, align 8
  br label %57

16:                                               ; preds = %3
  call void @llvm.lifetime.start.p0(i64 8, ptr %8) #10
  call void @llvm.lifetime.start.p0(i64 8, ptr %9) #10
  call void @llvm.lifetime.start.p0(i64 4, ptr %10) #10
  %17 = load ptr, ptr %7, align 8, !tbaa !19
  %18 = icmp ne ptr %17, @_Py_NoneStruct
  br i1 %18, label %19, label %27

19:                                               ; preds = %16
  %20 = load ptr, ptr %7, align 8, !tbaa !19
  %21 = call i32 @PyUnicode_FSConverter(ptr noundef %20, ptr noundef %8)
  %22 = icmp ne i32 %21, 0
  br i1 %22, label %24, label %23

23:                                               ; preds = %19
  store ptr null, ptr %4, align 8
  store i32 1, ptr %11, align 4
  br label %56

24:                                               ; preds = %19
  %25 = load ptr, ptr %8, align 8, !tbaa !19
  %26 = call ptr @PyBytes_AS_STRING(ptr noundef %25)
  store ptr %26, ptr %9, align 8, !tbaa !3
  br label %28

27:                                               ; preds = %16
  store ptr null, ptr %8, align 8, !tbaa !19
  store ptr null, ptr %9, align 8, !tbaa !3
  br label %28

28:                                               ; preds = %27, %24
  %29 = load i32, ptr %6, align 4, !tbaa !8
  %30 = load i8, ptr @libedit_append_replace_history_offset, align 1, !tbaa !23
  %31 = sext i8 %30 to i32
  %32 = sub i32 %29, %31
  %33 = load ptr, ptr %9, align 8, !tbaa !3
  %34 = call i32 @append_history(i32 noundef %32, ptr noundef %33)
  store i32 %34, ptr %10, align 4, !tbaa !8
  %35 = call ptr @__errno_location() #13
  store i32 %34, ptr %35, align 4, !tbaa !8
  %36 = load i32, ptr %10, align 4, !tbaa !8
  %37 = icmp ne i32 %36, 0
  br i1 %37, label %45, label %38

38:                                               ; preds = %28
  %39 = load i32, ptr @_history_length, align 4, !tbaa !8
  %40 = icmp sge i32 %39, 0
  br i1 %40, label %41, label %45

41:                                               ; preds = %38
  %42 = load ptr, ptr %9, align 8, !tbaa !3
  %43 = load i32, ptr @_history_length, align 4, !tbaa !8
  %44 = call i32 @history_truncate_file(ptr noundef %42, i32 noundef %43)
  br label %45

45:                                               ; preds = %41, %38, %28
  %46 = load ptr, ptr %8, align 8, !tbaa !19
  call void @Py_XDECREF(ptr noundef %46)
  %47 = load i32, ptr %10, align 4, !tbaa !8
  %48 = call ptr @__errno_location() #13
  store i32 %47, ptr %48, align 4, !tbaa !8
  %49 = call ptr @__errno_location() #13
  %50 = load i32, ptr %49, align 4, !tbaa !8
  %51 = icmp ne i32 %50, 0
  br i1 %51, label %52, label %55

52:                                               ; preds = %45
  %53 = load ptr, ptr @PyExc_OSError, align 8, !tbaa !19
  %54 = call ptr @PyErr_SetFromErrno(ptr noundef %53)
  store ptr %54, ptr %4, align 8
  store i32 1, ptr %11, align 4
  br label %56

55:                                               ; preds = %45
  store ptr @_Py_NoneStruct, ptr %4, align 8
  store i32 1, ptr %11, align 4
  br label %56

56:                                               ; preds = %55, %52, %23
  call void @llvm.lifetime.end.p0(i64 4, ptr %10) #10
  call void @llvm.lifetime.end.p0(i64 8, ptr %9) #10
  call void @llvm.lifetime.end.p0(i64 8, ptr %8) #10
  br label %57

57:                                               ; preds = %56, %14
  %58 = load ptr, ptr %4, align 8
  ret ptr %58
}

; Function Attrs: nounwind uwtable
define internal ptr @readline_append_history_file(ptr noundef %0, ptr noundef %1, i64 noundef %2) #0 {
  %4 = alloca ptr, align 8
  %5 = alloca ptr, align 8
  %6 = alloca i64, align 8
  %7 = alloca ptr, align 8
  %8 = alloca i32, align 4
  %9 = alloca ptr, align 8
  store ptr %0, ptr %4, align 8, !tbaa !19
  store ptr %1, ptr %5, align 8, !tbaa !36
  store i64 %2, ptr %6, align 8, !tbaa !24
  call void @llvm.lifetime.start.p0(i64 8, ptr %7) #10
  store ptr null, ptr %7, align 8, !tbaa !19
  call void @llvm.lifetime.start.p0(i64 4, ptr %8) #10
  call void @llvm.lifetime.start.p0(i64 8, ptr %9) #10
  store ptr @_Py_NoneStruct, ptr %9, align 8, !tbaa !19
  %10 = load i64, ptr %6, align 8, !tbaa !24
  %11 = icmp sle i64 1, %10
  br i1 %11, label %12, label %15

12:                                               ; preds = %3
  %13 = load i64, ptr %6, align 8, !tbaa !24
  %14 = icmp sle i64 %13, 2
  br i1 %14, label %20, label %15

15:                                               ; preds = %12, %3
  %16 = load i64, ptr %6, align 8, !tbaa !24
  %17 = call i32 @_PyArg_CheckPositional(ptr noundef @.str.13, i64 noundef %16, i64 noundef 1, i64 noundef 2)
  %18 = icmp ne i32 %17, 0
  br i1 %18, label %20, label %19

19:                                               ; preds = %15
  br label %44

20:                                               ; preds = %15, %12
  %21 = load ptr, ptr %5, align 8, !tbaa !36
  %22 = getelementptr ptr, ptr %21, i64 0
  %23 = load ptr, ptr %22, align 8, !tbaa !19
  %24 = call i32 @PyLong_AsInt(ptr noundef %23)
  store i32 %24, ptr %8, align 4, !tbaa !8
  %25 = load i32, ptr %8, align 4, !tbaa !8
  %26 = icmp eq i32 %25, -1
  br i1 %26, label %27, label %31

27:                                               ; preds = %20
  %28 = call ptr @PyErr_Occurred()
  %29 = icmp ne ptr %28, null
  br i1 %29, label %30, label %31

30:                                               ; preds = %27
  br label %44

31:                                               ; preds = %27, %20
  %32 = load i64, ptr %6, align 8, !tbaa !24
  %33 = icmp slt i64 %32, 2
  br i1 %33, label %34, label %35

34:                                               ; preds = %31
  br label %39

35:                                               ; preds = %31
  %36 = load ptr, ptr %5, align 8, !tbaa !36
  %37 = getelementptr ptr, ptr %36, i64 1
  %38 = load ptr, ptr %37, align 8, !tbaa !19
  store ptr %38, ptr %9, align 8, !tbaa !19
  br label %39

39:                                               ; preds = %35, %34
  %40 = load ptr, ptr %4, align 8, !tbaa !19
  %41 = load i32, ptr %8, align 4, !tbaa !8
  %42 = load ptr, ptr %9, align 8, !tbaa !19
  %43 = call ptr @readline_append_history_file_impl(ptr noundef %40, i32 noundef %41, ptr noundef %42)
  store ptr %43, ptr %7, align 8, !tbaa !19
  br label %44

44:                                               ; preds = %39, %30, %19
  %45 = load ptr, ptr %7, align 8, !tbaa !19
  call void @llvm.lifetime.end.p0(i64 8, ptr %9) #10
  call void @llvm.lifetime.end.p0(i64 4, ptr %8) #10
  call void @llvm.lifetime.end.p0(i64 8, ptr %7) #10
  ret ptr %45
}