; Function Attrs: nounwind uwtable
define internal ptr @readline_append_history_file(ptr readnone captures(none) %0, ptr noundef readonly captures(none) %1, i64 noundef %2) #0 {
  %4 = alloca ptr, align 8
  %5 = add i64 %2, -1
  %or.cond = icmp ult i64 %5, 2
  br i1 %or.cond, label %8, label %6

6:                                                ; preds = %3
  %7 = tail call i32 @_PyArg_CheckPositional(ptr noundef nonnull @.str.13, i64 noundef %2, i64 noundef 1, i64 noundef 2) #14
  %.not = icmp eq i32 %7, 0
  br i1 %.not, label %readline_append_history_file_impl.exit, label %8

8:                                                ; preds = %3, %6
  %9 = load ptr, ptr %1, align 8, !tbaa !41
  %10 = tail call i32 @PyLong_AsInt(ptr noundef %9) #14
  %11 = icmp eq i32 %10, -1
  br i1 %11, label %12, label %14

12:                                               ; preds = %8
  %13 = tail call ptr @PyErr_Occurred() #14
  %.not12 = icmp eq ptr %13, null
  br i1 %.not12, label %.thread.thread, label %readline_append_history_file_impl.exit

14:                                               ; preds = %8
  %15 = icmp slt i64 %2, 2
  br i1 %15, label %.thread, label %16

16:                                               ; preds = %14
  %17 = getelementptr i8, ptr %1, i64 8
  %18 = load ptr, ptr %17, align 8, !tbaa !41
  %19 = icmp slt i32 %10, 0
  br i1 %19, label %.thread.thread, label %22

.thread:                                          ; preds = %14
  %20 = icmp slt i32 %10, 0
  br i1 %20, label %.thread.thread, label %.thread15

.thread15:                                        ; preds = %.thread
  call void @llvm.lifetime.start.p0(i64 8, ptr nonnull %4) #14
  br label %28

.thread.thread:                                   ; preds = %12, %.thread, %16
  %21 = load ptr, ptr @PyExc_ValueError, align 8, !tbaa !41
  tail call void @PyErr_SetString(ptr noundef %21, ptr noundef nonnull @.str.37) #14
  br label %readline_append_history_file_impl.exit

22:                                               ; preds = %16
  call void @llvm.lifetime.start.p0(i64 8, ptr nonnull %4) #14
  %.not.i = icmp eq ptr %18, @_Py_NoneStruct
  br i1 %.not.i, label %28, label %23

23:                                               ; preds = %22
  %24 = call i32 @PyUnicode_FSConverter(ptr noundef %18, ptr noundef nonnull %4) #14
  %.not13.i = icmp eq i32 %24, 0
  br i1 %.not13.i, label %49, label %25

25:                                               ; preds = %23
  %26 = load ptr, ptr %4, align 8, !tbaa !41
  %27 = getelementptr inbounds nuw i8, ptr %26, i64 32
  br label %29

28:                                               ; preds = %.thread15, %22
  store ptr null, ptr %4, align 8, !tbaa !41
  br label %29

29:                                               ; preds = %28, %25
  %.09.i = phi ptr [ %27, %25 ], [ null, %28 ]
  %.b.i = load i1, ptr @libedit_append_replace_history_offset, align 1
  %.neg.i = sext i1 %.b.i to i32
  %30 = add nsw i32 %10, %.neg.i
  %31 = call i32 @append_history(i32 noundef %30, ptr noundef %.09.i) #14
  %32 = tail call ptr @__errno_location() #16
  store i32 %31, ptr %32, align 4, !tbaa !17
  %33 = icmp eq i32 %31, 0
  %34 = load i32, ptr @_history_length, align 4
  %35 = icmp sgt i32 %34, -1
  %or.cond.i = select i1 %33, i1 %35, i1 false
  br i1 %or.cond.i, label %36, label %38

36:                                               ; preds = %29
  %37 = call i32 @history_truncate_file(ptr noundef %.09.i, i32 noundef %34) #14
  br label %38

38:                                               ; preds = %36, %29
  %39 = load ptr, ptr %4, align 8, !tbaa !41
  %.not.i.i = icmp eq ptr %39, null
  br i1 %.not.i.i, label %Py_XDECREF.exit.i, label %40

40:                                               ; preds = %38
  %41 = load i32, ptr %39, align 8, !tbaa !25
  %.not.i.i.i = icmp sgt i32 %41, -1
  br i1 %.not.i.i.i, label %42, label %Py_XDECREF.exit.i

42:                                               ; preds = %40
  %43 = add nsw i32 %41, -1
  store i32 %43, ptr %39, align 8, !tbaa !25
  %44 = icmp eq i32 %43, 0
  br i1 %44, label %45, label %Py_XDECREF.exit.i

45:                                               ; preds = %42
  call void @_Py_Dealloc(ptr noundef nonnull %39) #14
  br label %Py_XDECREF.exit.i

Py_XDECREF.exit.i:                                ; preds = %45, %42, %40, %38
  store i32 %31, ptr %32, align 4, !tbaa !17
  br i1 %33, label %49, label %46

46:                                               ; preds = %Py_XDECREF.exit.i
  %47 = load ptr, ptr @PyExc_OSError, align 8, !tbaa !41
  %48 = call ptr @PyErr_SetFromErrno(ptr noundef %47) #14
  br label %49

49:                                               ; preds = %46, %Py_XDECREF.exit.i, %23
  %.1.i = phi ptr [ %48, %46 ], [ null, %23 ], [ @_Py_NoneStruct, %Py_XDECREF.exit.i ]
  call void @llvm.lifetime.end.p0(i64 8, ptr nonnull %4) #14
  br label %readline_append_history_file_impl.exit

readline_append_history_file_impl.exit:           ; preds = %49, %.thread.thread, %12, %6
  %.011 = phi ptr [ null, %12 ], [ null, %6 ], [ null, %.thread.thread ], [ %.1.i, %49 ]
  ret ptr %.011
}